target datalayout = "e-m:e-p270:32:32-p271:32:32-p272:64:64-i64:64-i128:128-f80:128-n8:16:32:64-S128"
target triple = "x86_64-pc-linux-gnu"

%struct.repository = type { ptr, ptr, ptr, ptr, ptr, %struct.strmap, %struct.strmap, %struct.repo_path_cache, ptr, ptr, ptr, ptr, %struct.repo_settings, ptr, ptr, ptr, ptr, ptr, ptr, i32, i32, i32, ptr, ptr, i32, i32, i8 }
%struct.strmap = type { %struct.hashmap, ptr, i8 }
%struct.hashmap = type { ptr, ptr, ptr, i32, i32, i32, i32, i8 }
%struct.repo_path_cache = type { ptr, ptr, ptr, ptr, ptr, ptr, ptr }
%struct.repo_settings = type { i32, i32, i32, i32, i32, i32, i32, i32, i32, i32, i32, i32, ptr, i32, i32, i32, i32, i32, i32, i32, i64, i64, i64 }
%struct.parsed_object_pool = type { ptr, ptr, i32, i32, ptr, ptr, ptr, ptr, ptr, ptr, i32, i32, i32, ptr, ptr, i32, i32, ptr }

; Function Attrs: nounwind uwtable
define dso_local i32 @commit_graft_pos(ptr noundef %0, ptr noundef %1) #0 {
  %3 = alloca ptr, align 8
  %4 = alloca ptr, align 8
  store ptr %0, ptr %3, align 8, !tbaa !4
  store ptr %1, ptr %4, align 8, !tbaa !9
  %5 = load ptr, ptr %4, align 8, !tbaa !9
  %6 = load ptr, ptr %3, align 8, !tbaa !4
  %7 = getelementptr inbounds nuw %struct.repository, ptr %6, i32 0, i32 3
  %8 = load ptr, ptr %7, align 8, !tbaa !20
  %9 = getelementptr inbounds nuw %struct.parsed_object_pool, ptr %8, i32 0, i32 9
  %10 = load ptr, ptr %9, align 8, !tbaa !39
  %11 = load ptr, ptr %3, align 8, !tbaa !4
  %12 = getelementptr inbounds nuw %struct.repository, ptr %11, i32 0, i32 3
  %13 = load ptr, ptr %12, align 8, !tbaa !20
  %14 = getelementptr inbounds nuw %struct.parsed_object_pool, ptr %13, i32 0, i32 11
  %15 = load i32, ptr %14, align 4, !tbaa !46
  %16 = sext i32 %15 to i64
  %17 = call i32 @oid_pos(ptr noundef %5, ptr noundef %10, i64 noundef %16, ptr noundef @commit_graft_oid_access)
  ret i32 %17
}

; Function Attrs: nounwind uwtable
define dso_local ptr @lookup_commit_graft(ptr noundef %0, ptr noundef %1) #0 {
  %3 = alloca ptr, align 8
  %4 = alloca ptr, align 8
  %5 = alloca ptr, align 8
  %6 = alloca i32, align 4
  %7 = alloca i32, align 4
  store ptr %0, ptr %4, align 8, !tbaa !4
  store ptr %1, ptr %5, align 8, !tbaa !9
  call void @llvm.lifetime.start.p0(i64 4, ptr %6) #11
  %8 = load ptr, ptr %4, align 8, !tbaa !4
  call void @prepare_commit_graft(ptr noundef %8)
  %9 = load ptr, ptr %4, align 8, !tbaa !4
  %10 = load ptr, ptr %5, align 8, !tbaa !9
  %11 = call i32 @commit_graft_pos(ptr noundef %9, ptr noundef %10)
  store i32 %11, ptr %6, align 4, !tbaa !11
  %12 = load i32, ptr %6, align 4, !tbaa !11
  %13 = icmp slt i32 %12, 0
  br i1 %13, label %14, label %15

14:                                               ; preds = %2
  store ptr null, ptr %3, align 8
  store i32 1, ptr %7, align 4
  br label %25

15:                                               ; preds = %2
  %16 = load ptr, ptr %4, align 8, !tbaa !4
  %17 = getelementptr inbounds nuw %struct.repository, ptr %16, i32 0, i32 3
  %18 = load ptr, ptr %17, align 8, !tbaa !20
  %19 = getelementptr inbounds nuw %struct.parsed_object_pool, ptr %18, i32 0, i32 9
  %20 = load ptr, ptr %19, align 8, !tbaa !39
  %21 = load i32, ptr %6, align 4, !tbaa !11
  %22 = sext i32 %21 to i64
  %23 = getelementptr inbounds ptr, ptr %20, i64 %22
  %24 = load ptr, ptr %23, align 8, !tbaa !50
  store ptr %24, ptr %3, align 8
  store i32 1, ptr %7, align 4
  br label %25

25:                                               ; preds = %15, %14
  call void @llvm.lifetime.end.p0(i64 4, ptr %6) #11
  %26 = load ptr, ptr %3, align 8
  ret ptr %26
}