; Function Attrs: nounwind uwtable
define dso_local ptr @lookup_commit_graft(ptr noundef %0, ptr noundef %1) local_unnamed_addr #0 {
  tail call void @prepare_commit_graft(ptr noundef %0)
  %3 = getelementptr inbounds nuw i8, ptr %0, i64 24
  %4 = load ptr, ptr %3, align 8, !tbaa !12
  %5 = getelementptr inbounds nuw i8, ptr %4, i64 64
  %6 = load ptr, ptr %5, align 8, !tbaa !32
  %7 = getelementptr inbounds nuw i8, ptr %4, i64 76
  %8 = load i32, ptr %7, align 4, !tbaa !39
  %9 = sext i32 %8 to i64
  %10 = tail call i32 @oid_pos(ptr noundef %1, ptr noundef %6, i64 noundef %9, ptr noundef nonnull @commit_graft_oid_access) #24
  %11 = icmp slt i32 %10, 0
  br i1 %11, label %19, label %12

12:                                               ; preds = %2
  %13 = load ptr, ptr %3, align 8, !tbaa !12
  %14 = getelementptr inbounds nuw i8, ptr %13, i64 64
  %15 = load ptr, ptr %14, align 8, !tbaa !32
  %16 = zext nneg i32 %10 to i64
  %17 = getelementptr inbounds nuw ptr, ptr %15, i64 %16
  %18 = load ptr, ptr %17, align 8, !tbaa !40
  br label %19

19:                                               ; preds = %2, %12
  %.0 = phi ptr [ %18, %12 ], [ null, %2 ]
  ret ptr %.0
}